; Function Attrs: mustprogress nounwind uwtable
define hidden void @_ZN22G1ConcurrentMarkThreadC2EP16G1ConcurrentMark(ptr noundef nonnull align 8 dereferenceable(948) %0, ptr noundef %1) unnamed_addr #0 align 2 {
  tail call void @_ZN18ConcurrentGCThreadC2Ev(ptr noundef nonnull align 8 dereferenceable(918) %0) #11
  store ptr getelementptr inbounds inrange(-16, 240) (i8, ptr @_ZTV22G1ConcurrentMarkThread, i64 16), ptr %0, align 8
  %3 = getelementptr inbounds i8, ptr %0, i64 920
  %4 = getelementptr inbounds i8, ptr %0, i64 936
  tail call void @llvm.memset.p0.i64(ptr noundef nonnull align 8 dereferenceable(16) %3, i8 0, i64 16, i1 false)
  store ptr %1, ptr %4, align 8
  %5 = getelementptr inbounds i8, ptr %0, i64 944
  store volatile i32 0, ptr %5, align 8
  tail call void (ptr, ptr, ...) @_ZN11NamedThread8set_nameEPKcz(ptr noundef nonnull align 8 dereferenceable(916) %0, ptr noundef nonnull @.str) #11
  tail call void @_ZN18ConcurrentGCThread16create_and_startE14ThreadPriority(ptr noundef nonnull align 8 dereferenceable(918) %0, i32 noundef 9) #11
  ret void
}